target datalayout = "e-m:e-p270:32:32-p271:32:32-p272:64:64-i64:64-i128:128-f80:128-n8:16:32:64-S128"
target triple = "x86_64-pc-linux-gnu"

%"class.net::StrikeRegister" = type { i32, i32, i32, [8 x i8], i32, i32, i32, i32, ptr, %"class.std::unique_ptr" }
%"class.std::unique_ptr" = type { %"struct.std::__uniq_ptr_data" }
%"struct.std::__uniq_ptr_data" = type { %"class.std::__uniq_ptr_impl" }
%"class.std::__uniq_ptr_impl" = type { %"class.std::tuple" }
%"class.std::tuple" = type { %"struct.std::_Tuple_impl" }
%"struct.std::_Tuple_impl" = type { %"struct.std::_Head_base.1" }
%"struct.std::_Head_base.1" = type { ptr }
%"class.net::StrikeRegister::InternalNode" = type { [2 x i32] }

; Function Attrs: mustprogress nounwind uwtable
define linkonce_odr void @_ZN3net14StrikeRegister12InternalNode10SetNextPtrEj(ptr noundef nonnull align 4 dereferenceable(8) %0, i32 noundef %1) #3 comdat align 2 {
  %3 = alloca ptr, align 8
  %4 = alloca i32, align 4
  store ptr %0, ptr %3, align 8, !tbaa !51
  store i32 %1, ptr %4, align 4, !tbaa !3
  %5 = load ptr, ptr %3, align 8
  %6 = load i32, ptr %4, align 4, !tbaa !3
  %7 = getelementptr inbounds nuw %"class.net::StrikeRegister::InternalNode", ptr %5, i32 0, i32 0
  %8 = getelementptr inbounds [2 x i32], ptr %7, i64 0, i64 0
  store i32 %6, ptr %8, align 4, !tbaa !3
  ret void
}

; Function Attrs: mustprogress uwtable
define void @_ZN3net14StrikeRegister16FreeInternalNodeEj(ptr noundef nonnull align 8 dereferenceable(56) %0, i32 noundef %1) #0 align 2 {
  %3 = alloca ptr, align 8
  %4 = alloca i32, align 4
  store ptr %0, ptr %3, align 8, !tbaa !24
  store i32 %1, ptr %4, align 4, !tbaa !3
  %5 = load ptr, ptr %3, align 8
  %6 = getelementptr inbounds nuw %"class.net::StrikeRegister", ptr %5, i32 0, i32 8
  %7 = load ptr, ptr %6, align 8, !tbaa !40
  %8 = load i32, ptr %4, align 4, !tbaa !3
  %9 = zext i32 %8 to i64
  %10 = getelementptr inbounds nuw %"class.net::StrikeRegister::InternalNode", ptr %7, i64 %9
  %11 = getelementptr inbounds nuw %"class.net::StrikeRegister", ptr %5, i32 0, i32 5
  %12 = load i32, ptr %11, align 8, !tbaa !43
  call void @_ZN3net14StrikeRegister12InternalNode10SetNextPtrEj(ptr noundef nonnull align 4 dereferenceable(8) %10, i32 noundef %12)
  %13 = load i32, ptr %4, align 4, !tbaa !3
  %14 = getelementptr inbounds nuw %"class.net::StrikeRegister", ptr %5, i32 0, i32 5
  store i32 %13, ptr %14, align 8, !tbaa !43
  ret void
}