; Function Attrs: mustprogress nofree norecurse nosync nounwind willreturn memory(write, argmem: readwrite, inaccessiblemem: none) uwtable
define void @_ZN3net14StrikeRegister16FreeInternalNodeEj(ptr noundef nonnull align 8 captures(none) dereferenceable(56) %0, i32 noundef %1) local_unnamed_addr #14 align 2 {
  %3 = getelementptr inbounds nuw i8, ptr %0, i64 40
  %4 = load ptr, ptr %3, align 8, !tbaa !22
  %5 = zext i32 %1 to i64
  %6 = getelementptr inbounds nuw %"class.net::StrikeRegister::InternalNode", ptr %4, i64 %5
  %7 = getelementptr inbounds nuw i8, ptr %0, i64 24
  %8 = load i32, ptr %7, align 8, !tbaa !24
  store i32 %8, ptr %6, align 4, !tbaa !3
  store i32 %1, ptr %7, align 8, !tbaa !24
  ret void
}